target datalayout = "e-m:e-p270:32:32-p271:32:32-p272:64:64-i64:64-i128:128-f80:128-n8:16:32:64-S128"
target triple = "x86_64-pc-linux-gnu"

%class.MallocMemorySnapshot = type { [28 x %class.MallocMemory], %class.MemoryCounter }
%class.MallocMemory = type { %class.MemoryCounter, %class.MemoryCounter }
%class.MemoryCounter = type { i64, i64, i64, i64 }
%class.Chunk = type { ptr, i64 }
%class.Arena = type { i8, i8, i64, ptr, ptr, ptr, ptr }
%"struct.Atomic::PlatformAdd" = type { i8 }

@_ZN10MemTracker15_tracking_levelE = external global i32, align 4
@_ZN19MallocMemorySummary9_snapshotE = external global %class.MallocMemorySnapshot, align 8
@_ZN26CompilationMemoryStatistic8_enabledE = external global i8, align 1
@_ZN6Thread12_thr_currentE = external thread_local global ptr, align 8

; Function Attrs: mustprogress nounwind uwtable
define linkonce_odr hidden noundef i64 @_ZNK6Atomic11PlatformAddILm8EE14fetch_then_addImmEET_PVS3_T0_19atomic_memory_order(ptr noundef nonnull align 1 dereferenceable(1) %0, ptr noundef %1, i64 noundef %2, i32 noundef %3) #1 comdat align 2 {
  %5 = alloca ptr, align 8
  %6 = alloca ptr, align 8
  %7 = alloca i64, align 8
  %8 = alloca i32, align 4
  %9 = alloca i64, align 8
  store ptr %0, ptr %5, align 8
  store ptr %1, ptr %6, align 8
  store i64 %2, ptr %7, align 8
  store i32 %3, ptr %8, align 4
  %10 = load i64, ptr %7, align 8
  %11 = load ptr, ptr %6, align 8
  %12 = call i64 asm sideeffect "lock xaddq $0,($2)", "=r,0,r,~{cc},~{memory},~{dirflag},~{fpsr},~{flags}"(i64 %10, ptr %11) #8, !srcloc !13
  store i64 %12, ptr %9, align 8
  %13 = load i64, ptr %9, align 8
  ret i64 %13
}

; Function Attrs: mustprogress nounwind uwtable
define linkonce_odr hidden noundef i64 @_ZNK6Atomic11PlatformAddILm8EE14add_then_fetchImmEET_PVS3_T0_19atomic_memory_order(ptr noundef nonnull align 1 dereferenceable(1) %0, ptr noundef %1, i64 noundef %2, i32 noundef %3) #1 comdat align 2 {
  %5 = alloca ptr, align 8
  %6 = alloca ptr, align 8
  %7 = alloca i64, align 8
  %8 = alloca i32, align 4
  store ptr %0, ptr %5, align 8
  store ptr %1, ptr %6, align 8
  store i64 %2, ptr %7, align 8
  store i32 %3, ptr %8, align 4
  %9 = load ptr, ptr %5, align 8
  %10 = load ptr, ptr %6, align 8
  %11 = load i64, ptr %7, align 8
  %12 = load i32, ptr %8, align 4
  %13 = call noundef i64 @_ZNK6Atomic11PlatformAddILm8EE14fetch_then_addImmEET_PVS3_T0_19atomic_memory_order(ptr noundef nonnull align 1 dereferenceable(1) %9, ptr noundef %10, i64 noundef %11, i32 noundef %12)
  %14 = load i64, ptr %7, align 8
  %15 = add i64 %13, %14
  ret i64 %15
}

; Function Attrs: mustprogress nounwind uwtable
define linkonce_odr hidden noundef i64 @_ZN6Atomic7AddImplImmvE14add_then_fetchEPVmm19atomic_memory_order(ptr noundef %0, i64 noundef %1, i32 noundef %2) #1 comdat align 2 {
  %4 = alloca ptr, align 8
  %5 = alloca i64, align 8
  %6 = alloca i32, align 4
  %7 = alloca i64, align 8
  %8 = alloca %"struct.Atomic::PlatformAdd", align 1
  store ptr %0, ptr %4, align 8
  store i64 %1, ptr %5, align 8
  store i32 %2, ptr %6, align 4
  %9 = load i64, ptr %5, align 8
  store i64 %9, ptr %7, align 8
  %10 = load ptr, ptr %4, align 8
  %11 = load i64, ptr %7, align 8
  %12 = load i32, ptr %6, align 4
  %13 = call noundef i64 @_ZNK6Atomic11PlatformAddILm8EE14add_then_fetchImmEET_PVS3_T0_19atomic_memory_order(ptr noundef nonnull align 1 dereferenceable(1) %8, ptr noundef %10, i64 noundef %11, i32 noundef %12)
  ret i64 %13
}

; Function Attrs: mustprogress nounwind uwtable
define linkonce_odr hidden void @_ZN13MemoryCounter6resizeEl(ptr noundef nonnull align 8 dereferenceable(32) %0, i64 noundef %1) #1 comdat align 2 {
  %3 = alloca ptr, align 8
  %4 = alloca i64, align 8
  %5 = alloca i64, align 8
  store ptr %0, ptr %3, align 8
  store i64 %1, ptr %4, align 8
  %6 = load ptr, ptr %3, align 8
  %7 = load i64, ptr %4, align 8
  %8 = icmp ne i64 %7, 0
  br i1 %8, label %9, label %16

9:                                                ; preds = %2
  %10 = getelementptr inbounds %class.MemoryCounter, ptr %6, i32 0, i32 1
  %11 = load i64, ptr %4, align 8
  %12 = call noundef i64 @_ZN6Atomic3addImmEET_PVS1_T0_19atomic_memory_order(ptr noundef %10, i64 noundef %11, i32 noundef 0)
  store i64 %12, ptr %5, align 8
  %13 = load i64, ptr %5, align 8
  %14 = getelementptr inbounds %class.MemoryCounter, ptr %6, i32 0, i32 0
  %15 = load volatile i64, ptr %14, align 8
  call void @_ZN13MemoryCounter11update_peakEmm(ptr noundef nonnull align 8 dereferenceable(32) %6, i64 noundef %13, i64 noundef %15)
  br label %16

16:                                               ; preds = %9, %2
  ret void
}

; Function Attrs: mustprogress nounwind uwtable
define linkonce_odr hidden noundef i64 @_ZN6Atomic3addImmEET_PVS1_T0_19atomic_memory_order(ptr noundef %0, i64 noundef %1, i32 noundef %2) #1 comdat align 2 {
  %4 = alloca ptr, align 8
  %5 = alloca i64, align 8
  %6 = alloca i32, align 4
  store ptr %0, ptr %4, align 8
  store i64 %1, ptr %5, align 8
  store i32 %2, ptr %6, align 4
  %7 = load ptr, ptr %4, align 8
  %8 = load i64, ptr %5, align 8
  %9 = load i32, ptr %6, align 4
  %10 = call noundef i64 @_ZN6Atomic7AddImplImmvE14add_then_fetchEPVmm19atomic_memory_order(ptr noundef %7, i64 noundef %8, i32 noundef %9)
  ret i64 %10
}

; Function Attrs: mustprogress nounwind uwtable
define linkonce_odr hidden void @_ZN12MallocMemory24record_arena_size_changeEl(ptr noundef nonnull align 8 dereferenceable(64) %0, i64 noundef %1) #1 comdat align 2 {
  %3 = alloca ptr, align 8
  %4 = alloca i64, align 8
  store ptr %0, ptr %3, align 8
  store i64 %1, ptr %4, align 8
  %5 = load ptr, ptr %3, align 8
  %6 = getelementptr inbounds %class.MallocMemory, ptr %5, i32 0, i32 1
  %7 = load i64, ptr %4, align 8
  call void @_ZN13MemoryCounter6resizeEl(ptr noundef nonnull align 8 dereferenceable(32) %6, i64 noundef %7)
  ret void
}

; Function Attrs: mustprogress nounwind uwtable
define linkonce_odr hidden void @_ZN13MemoryCounter8allocateEm(ptr noundef nonnull align 8 dereferenceable(32) %0, i64 noundef %1) #1 comdat align 2 {
  %3 = alloca ptr, align 8
  %4 = alloca i64, align 8
  %5 = alloca i64, align 8
  %6 = alloca i64, align 8
  store ptr %0, ptr %3, align 8
  store i64 %1, ptr %4, align 8
  %7 = load ptr, ptr %3, align 8
  %8 = getelementptr inbounds %class.MemoryCounter, ptr %7, i32 0, i32 0
  %9 = call noundef i64 @_ZN6Atomic3addImmEET_PVS1_T0_19atomic_memory_order(ptr noundef %8, i64 noundef 1, i32 noundef 0)
  store i64 %9, ptr %5, align 8
  %10 = load i64, ptr %4, align 8
  %11 = icmp ugt i64 %10, 0
  br i1 %11, label %12, label %18

12:                                               ; preds = %2
  %13 = getelementptr inbounds %class.MemoryCounter, ptr %7, i32 0, i32 1
  %14 = load i64, ptr %4, align 8
  %15 = call noundef i64 @_ZN6Atomic3addImmEET_PVS1_T0_19atomic_memory_order(ptr noundef %13, i64 noundef %14, i32 noundef 0)
  store i64 %15, ptr %6, align 8
  %16 = load i64, ptr %6, align 8
  %17 = load i64, ptr %5, align 8
  call void @_ZN13MemoryCounter11update_peakEmm(ptr noundef nonnull align 8 dereferenceable(32) %7, i64 noundef %16, i64 noundef %17)
  br label %18

18:                                               ; preds = %12, %2
  ret void
}

; Function Attrs: mustprogress nounwind uwtable
define linkonce_odr hidden noundef i32 @_ZN7NMTUtil13flag_to_indexE8MEMFLAGS(i8 noundef zeroext %0) #1 comdat align 2 {
  %2 = alloca i8, align 1
  store i8 %0, ptr %2, align 1
  %3 = load i8, ptr %2, align 1
  %4 = zext i8 %3 to i32
  ret i32 %4
}

; Function Attrs: mustprogress nounwind uwtable
define linkonce_odr hidden void @_ZN19MallocMemorySummary24record_arena_size_changeEl8MEMFLAGS(i64 noundef %0, i8 noundef zeroext %1) #1 comdat align 2 {
  %3 = alloca i64, align 8
  %4 = alloca i8, align 1
  store i64 %0, ptr %3, align 8
  store i8 %1, ptr %4, align 1
  %5 = call noundef ptr @_ZN19MallocMemorySummary11as_snapshotEv()
  %6 = load i8, ptr %4, align 1
  %7 = call noundef ptr @_ZN20MallocMemorySnapshot7by_typeE8MEMFLAGS(ptr noundef nonnull align 8 dereferenceable(1824) %5, i8 noundef zeroext %6)
  %8 = load i64, ptr %3, align 8
  call void @_ZN12MallocMemory24record_arena_size_changeEl(ptr noundef nonnull align 8 dereferenceable(64) %7, i64 noundef %8)
  ret void
}

; Function Attrs: mustprogress nounwind uwtable
define linkonce_odr hidden void @_ZN12MallocMemory16record_new_arenaEv(ptr noundef nonnull align 8 dereferenceable(64) %0) #1 comdat align 2 {
  %2 = alloca ptr, align 8
  store ptr %0, ptr %2, align 8
  %3 = load ptr, ptr %2, align 8
  %4 = getelementptr inbounds %class.MallocMemory, ptr %3, i32 0, i32 1
  call void @_ZN13MemoryCounter8allocateEm(ptr noundef nonnull align 8 dereferenceable(32) %4, i64 noundef 0)
  ret void
}

; Function Attrs: mustprogress nounwind uwtable
define linkonce_odr hidden noundef ptr @_ZN20MallocMemorySnapshot7by_typeE8MEMFLAGS(ptr noundef nonnull align 8 dereferenceable(1824) %0, i8 noundef zeroext %1) #1 comdat align 2 {
  %3 = alloca ptr, align 8
  %4 = alloca i8, align 1
  %5 = alloca i32, align 4
  store ptr %0, ptr %3, align 8
  store i8 %1, ptr %4, align 1
  %6 = load ptr, ptr %3, align 8
  %7 = load i8, ptr %4, align 1
  %8 = call noundef i32 @_ZN7NMTUtil13flag_to_indexE8MEMFLAGS(i8 noundef zeroext %7)
  store i32 %8, ptr %5, align 4
  %9 = getelementptr inbounds %class.MallocMemorySnapshot, ptr %6, i32 0, i32 0
  %10 = load i32, ptr %5, align 4
  %11 = sext i32 %10 to i64
  %12 = getelementptr inbounds [28 x %class.MallocMemory], ptr %9, i64 0, i64 %11
  ret ptr %12
}

; Function Attrs: mustprogress nounwind uwtable
define linkonce_odr hidden noundef ptr @_ZN19MallocMemorySummary11as_snapshotEv() #1 comdat align 2 {
  ret ptr @_ZN19MallocMemorySummary9_snapshotE
}

; Function Attrs: mustprogress nounwind uwtable
define linkonce_odr hidden noundef ptr @_ZN6Thread15current_or_nullEv() #1 comdat align 2 {
  %1 = call align 8 ptr @llvm.threadlocal.address.p0(ptr align 8 @_ZN6Thread12_thr_currentE)
  %2 = load ptr, ptr %1, align 8
  ret ptr %2
}

; Function Attrs: mustprogress nounwind uwtable
define linkonce_odr hidden void @_ZN13MallocTracker24record_arena_size_changeEl8MEMFLAGS(i64 noundef %0, i8 noundef zeroext %1) #1 comdat align 2 {
  %3 = alloca i64, align 8
  %4 = alloca i8, align 1
  store i64 %0, ptr %3, align 8
  store i8 %1, ptr %4, align 1
  %5 = load i64, ptr %3, align 8
  %6 = load i8, ptr %4, align 1
  call void @_ZN19MallocMemorySummary24record_arena_size_changeEl8MEMFLAGS(i64 noundef %5, i8 noundef zeroext %6)
  ret void
}

; Function Attrs: mustprogress nounwind uwtable
define linkonce_odr hidden void @_ZN19MallocMemorySummary16record_new_arenaE8MEMFLAGS(i8 noundef zeroext %0) #1 comdat align 2 {
  %2 = alloca i8, align 1
  store i8 %0, ptr %2, align 1
  %3 = call noundef ptr @_ZN19MallocMemorySummary11as_snapshotEv()
  %4 = load i8, ptr %2, align 1
  %5 = call noundef ptr @_ZN20MallocMemorySnapshot7by_typeE8MEMFLAGS(ptr noundef nonnull align 8 dereferenceable(1824) %3, i8 noundef zeroext %4)
  call void @_ZN12MallocMemory16record_new_arenaEv(ptr noundef nonnull align 8 dereferenceable(64) %5)
  ret void
}

; Function Attrs: mustprogress nounwind uwtable
define linkonce_odr hidden noundef ptr @_ZN6Thread7currentEv() #1 comdat align 2 {
  %1 = alloca ptr, align 8
  %2 = call noundef ptr @_ZN6Thread15current_or_nullEv()
  store ptr %2, ptr %1, align 8
  %3 = load ptr, ptr %1, align 8
  ret ptr %3
}

; Function Attrs: mustprogress nounwind uwtable
define linkonce_odr hidden noundef zeroext i1 @_ZN26CompilationMemoryStatistic7enabledEv() #1 comdat align 2 {
  %1 = load i8, ptr @_ZN26CompilationMemoryStatistic8_enabledE, align 1
  %2 = trunc i8 %1 to i1
  ret i1 %2
}

; Function Attrs: mustprogress nounwind uwtable
define linkonce_odr hidden void @_ZN10MemTracker24record_arena_size_changeEl8MEMFLAGS(i64 noundef %0, i8 noundef zeroext %1) #1 comdat align 2 {
  %3 = alloca i64, align 8
  %4 = alloca i8, align 1
  store i64 %0, ptr %3, align 8
  store i8 %1, ptr %4, align 1
  %5 = call noundef zeroext i1 @_ZN10MemTracker7enabledEv()
  br i1 %5, label %7, label %6

6:                                                ; preds = %2
  br label %10

7:                                                ; preds = %2
  %8 = load i64, ptr %3, align 8
  %9 = load i8, ptr %4, align 1
  call void @_ZN13MallocTracker24record_arena_size_changeEl8MEMFLAGS(i64 noundef %8, i8 noundef zeroext %9)
  br label %10

10:                                               ; preds = %7, %6
  ret void
}

; Function Attrs: mustprogress nounwind uwtable
define linkonce_odr hidden noundef i64 @_ZNK5Arena13size_in_bytesEv(ptr noundef nonnull align 8 dereferenceable(48) %0) #1 comdat align 2 {
  %2 = alloca ptr, align 8
  store ptr %0, ptr %2, align 8
  %3 = load ptr, ptr %2, align 8
  %4 = getelementptr inbounds %class.Arena, ptr %3, i32 0, i32 2
  %5 = load i64, ptr %4, align 8
  ret i64 %5
}

; Function Attrs: mustprogress nounwind uwtable
define linkonce_odr hidden void @_ZN13MallocTracker16record_new_arenaE8MEMFLAGS(i8 noundef zeroext %0) #1 comdat align 2 {
  %2 = alloca i8, align 1
  store i8 %0, ptr %2, align 1
  %3 = load i8, ptr %2, align 1
  call void @_ZN19MallocMemorySummary16record_new_arenaE8MEMFLAGS(i8 noundef zeroext %3)
  ret void
}

; Function Attrs: mustprogress nounwind uwtable
define linkonce_odr hidden noundef zeroext i1 @_ZN10MemTracker7enabledEv() #1 comdat align 2 {
  %1 = load i32, ptr @_ZN10MemTracker15_tracking_levelE, align 4
  %2 = icmp sgt i32 %1, 1
  ret i1 %2
}

; Function Attrs: mustprogress nounwind uwtable
define linkonce_odr hidden noundef i64 @_ZN5Chunk21aligned_overhead_sizeEv() #1 comdat align 2 {
  %1 = call noundef i64 @_Z8align_upImiTnNSt9enable_ifIXcvbsr3std11is_integralIT_EE5valueEiE4typeELi0EES1_S1_T0_(i64 noundef 16, i32 noundef 8)
  ret i64 %1
}

; Function Attrs: mustprogress nounwind uwtable
define linkonce_odr hidden noundef i64 @_Z10align_downImiTnNSt9enable_ifIXcvbsr3std11is_integralIT_EE5valueEiE4typeELi0EES1_S1_T0_(i64 noundef %0, i32 noundef %1) #1 comdat {
  %3 = alloca i64, align 8
  %4 = alloca i32, align 4
  %5 = alloca i64, align 8
  store i64 %0, ptr %3, align 8
  store i32 %1, ptr %4, align 4
  %6 = load i64, ptr %3, align 8
  %7 = load i32, ptr %4, align 4
  %8 = call noundef i32 @_ZL14alignment_maskIiTnNSt9enable_ifIXcvbsr3std11is_integralIT_EE5valueEiE4typeELi0EES1_S1_(i32 noundef %7)
  %9 = sext i32 %8 to i64
  %10 = xor i64 %9, -1
  %11 = and i64 %6, %10
  store i64 %11, ptr %5, align 8
  %12 = load i64, ptr %5, align 8
  ret i64 %12
}

; Function Attrs: mustprogress nounwind uwtable
define linkonce_odr hidden noundef i64 @_Z12checked_castImmET_T0_(i64 noundef %0) #1 comdat {
  %2 = alloca i64, align 8
  %3 = alloca i64, align 8
  store i64 %0, ptr %2, align 8
  %4 = load i64, ptr %2, align 8
  store i64 %4, ptr %3, align 8
  %5 = load i64, ptr %3, align 8
  ret i64 %5
}

; Function Attrs: mustprogress nounwind uwtable
define internal noundef i32 @_ZL14alignment_maskIiTnNSt9enable_ifIXcvbsr3std11is_integralIT_EE5valueEiE4typeELi0EES1_S1_(i32 noundef %0) #1 {
  %2 = alloca i32, align 4
  store i32 %0, ptr %2, align 4
  %3 = load i32, ptr %2, align 4
  %4 = sub nsw i32 %3, 1
  ret i32 %4
}

; Function Attrs: mustprogress nounwind uwtable
define hidden void @_ZN5Arena17set_size_in_bytesEm(ptr noundef nonnull align 8 dereferenceable(48) %0, i64 noundef %1) #1 align 2 {
  %3 = alloca ptr, align 8
  %4 = alloca i64, align 8
  %5 = alloca i64, align 8
  %6 = alloca ptr, align 8
  store ptr %0, ptr %3, align 8
  store i64 %1, ptr %4, align 8
  %7 = load ptr, ptr %3, align 8
  %8 = getelementptr inbounds %class.Arena, ptr %7, i32 0, i32 2
  %9 = load i64, ptr %8, align 8
  %10 = load i64, ptr %4, align 8
  %11 = icmp ne i64 %9, %10
  br i1 %11, label %12, label %40

12:                                               ; preds = %2
  %13 = load i64, ptr %4, align 8
  %14 = call noundef i64 @_ZNK5Arena13size_in_bytesEv(ptr noundef nonnull align 8 dereferenceable(48) %7)
  %15 = sub i64 %13, %14
  store i64 %15, ptr %5, align 8
  %16 = load i64, ptr %4, align 8
  %17 = getelementptr inbounds %class.Arena, ptr %7, i32 0, i32 2
  store i64 %16, ptr %17, align 8
  %18 = load i64, ptr %5, align 8
  %19 = getelementptr inbounds %class.Arena, ptr %7, i32 0, i32 0
  %20 = load i8, ptr %19, align 8
  call void @_ZN10MemTracker24record_arena_size_changeEl8MEMFLAGS(i64 noundef %18, i8 noundef zeroext %20)
  %21 = call noundef zeroext i1 @_ZN26CompilationMemoryStatistic7enabledEv()
  br i1 %21, label %22, label %39

22:                                               ; preds = %12
  %23 = getelementptr inbounds %class.Arena, ptr %7, i32 0, i32 0
  %24 = load i8, ptr %23, align 8
  %25 = icmp eq i8 %24, 7
  br i1 %25, label %26, label %39

26:                                               ; preds = %22
  %27 = call noundef ptr @_ZN6Thread7currentEv()
  store ptr %27, ptr %6, align 8
  %28 = load ptr, ptr %6, align 8
  %29 = icmp ne ptr %28, null
  br i1 %29, label %30, label %38

30:                                               ; preds = %26
  %31 = load ptr, ptr %6, align 8
  %32 = load ptr, ptr %31, align 8
  %33 = getelementptr inbounds ptr, ptr %32, i64 8
  %34 = load ptr, ptr %33, align 8
  %35 = call noundef zeroext i1 %34(ptr noundef nonnull align 8 dereferenceable(888) %31)
  br i1 %35, label %36, label %38

36:                                               ; preds = %30
  %37 = load i64, ptr %5, align 8
  call void @_ZN26CompilationMemoryStatistic15on_arena_changeElPK5Arena(i64 noundef %37, ptr noundef %7)
  br label %38

38:                                               ; preds = %36, %30, %26
  br label %39

39:                                               ; preds = %38, %22, %12
  br label %40

40:                                               ; preds = %39, %2
  ret void
}

; Function Attrs: mustprogress nounwind uwtable
define linkonce_odr hidden void @_ZN10MemTracker16record_new_arenaE8MEMFLAGS(i8 noundef zeroext %0) #1 comdat align 2 {
  %2 = alloca i8, align 1
  store i8 %0, ptr %2, align 1
  %3 = call noundef zeroext i1 @_ZN10MemTracker7enabledEv()
  br i1 %3, label %5, label %4

4:                                                ; preds = %1
  br label %7

5:                                                ; preds = %1
  %6 = load i8, ptr %2, align 1
  call void @_ZN13MallocTracker16record_new_arenaE8MEMFLAGS(i8 noundef zeroext %6)
  br label %7

7:                                                ; preds = %5, %4
  ret void
}

; Function Attrs: mustprogress nounwind uwtable
define linkonce_odr hidden noundef ptr @_ZNK5Chunk3topEv(ptr noundef nonnull align 8 dereferenceable(16) %0) #1 comdat align 2 {
  %2 = alloca ptr, align 8
  store ptr %0, ptr %2, align 8
  %3 = load ptr, ptr %2, align 8
  %4 = call noundef ptr @_ZNK5Chunk6bottomEv(ptr noundef nonnull align 8 dereferenceable(16) %3)
  %5 = getelementptr inbounds %class.Chunk, ptr %3, i32 0, i32 1
  %6 = load i64, ptr %5, align 8
  %7 = getelementptr inbounds i8, ptr %4, i64 %6
  ret ptr %7
}

; Function Attrs: mustprogress nounwind uwtable
define linkonce_odr hidden noundef ptr @_ZNK5Chunk6bottomEv(ptr noundef nonnull align 8 dereferenceable(16) %0) #1 comdat align 2 {
  %2 = alloca ptr, align 8
  store ptr %0, ptr %2, align 8
  %3 = load ptr, ptr %2, align 8
  %4 = call noundef i64 @_ZN5Chunk21aligned_overhead_sizeEv()
  %5 = getelementptr inbounds i8, ptr %3, i64 %4
  ret ptr %5
}

; Function Attrs: mustprogress nounwind uwtable
define linkonce_odr hidden noundef i64 @_Z8align_upImiTnNSt9enable_ifIXcvbsr3std11is_integralIT_EE5valueEiE4typeELi0EES1_S1_T0_(i64 noundef %0, i32 noundef %1) #1 comdat {
  %3 = alloca i64, align 8
  %4 = alloca i32, align 4
  %5 = alloca i64, align 8
  store i64 %0, ptr %3, align 8
  store i32 %1, ptr %4, align 4
  %6 = load i64, ptr %3, align 8
  %7 = load i32, ptr %4, align 4
  %8 = call noundef i32 @_ZL14alignment_maskIiTnNSt9enable_ifIXcvbsr3std11is_integralIT_EE5valueEiE4typeELi0EES1_S1_(i32 noundef %7)
  %9 = sext i32 %8 to i64
  %10 = add i64 %6, %9
  %11 = call noundef i64 @_Z12checked_castImmET_T0_(i64 noundef %10)
  store i64 %11, ptr %5, align 8
  %12 = load i64, ptr %5, align 8
  %13 = load i32, ptr %4, align 4
  %14 = call noundef i64 @_Z10align_downImiTnNSt9enable_ifIXcvbsr3std11is_integralIT_EE5valueEiE4typeELi0EES1_S1_T0_(i64 noundef %12, i32 noundef %13)
  ret i64 %14
}

; Function Attrs: mustprogress nounwind uwtable
define hidden void @_ZN5ArenaC2E8MEMFLAGSNS_3TagEm(ptr noundef nonnull align 8 dereferenceable(48) %0, i8 noundef zeroext %1, i8 noundef zeroext %2, i64 noundef %3) unnamed_addr #1 align 2 {
  %5 = alloca ptr, align 8
  %6 = alloca i8, align 1
  %7 = alloca i8, align 1
  %8 = alloca i64, align 8
  store ptr %0, ptr %5, align 8
  store i8 %1, ptr %6, align 1
  store i8 %2, ptr %7, align 1
  store i64 %3, ptr %8, align 8
  %9 = load ptr, ptr %5, align 8
  %10 = getelementptr inbounds %class.Arena, ptr %9, i32 0, i32 0
  %11 = load i8, ptr %6, align 1
  store i8 %11, ptr %10, align 8
  %12 = getelementptr inbounds %class.Arena, ptr %9, i32 0, i32 1
  %13 = load i8, ptr %7, align 1
  store i8 %13, ptr %12, align 1
  %14 = getelementptr inbounds %class.Arena, ptr %9, i32 0, i32 2
  store i64 0, ptr %14, align 8
  %15 = getelementptr inbounds %class.Arena, ptr %9, i32 0, i32 3
  store ptr null, ptr %15, align 8
  %16 = getelementptr inbounds %class.Arena, ptr %9, i32 0, i32 4
  store ptr null, ptr %16, align 8
  %17 = getelementptr inbounds %class.Arena, ptr %9, i32 0, i32 5
  store ptr null, ptr %17, align 8
  %18 = getelementptr inbounds %class.Arena, ptr %9, i32 0, i32 6
  store ptr null, ptr %18, align 8
  %19 = load i64, ptr %8, align 8
  %20 = call noundef i64 @_Z8align_upImiTnNSt9enable_ifIXcvbsr3std11is_integralIT_EE5valueEiE4typeELi0EES1_S1_T0_(i64 noundef %19, i32 noundef 8)
  store i64 %20, ptr %8, align 8
  %21 = load i64, ptr %8, align 8
  %22 = call noundef ptr @_ZN9ChunkPool14allocate_chunkEmN17AllocFailStrategy13AllocFailEnumE(i64 noundef %21, i32 noundef 0)
  %23 = getelementptr inbounds %class.Arena, ptr %9, i32 0, i32 4
  store ptr %22, ptr %23, align 8
  %24 = getelementptr inbounds %class.Arena, ptr %9, i32 0, i32 4
  %25 = load ptr, ptr %24, align 8
  %26 = getelementptr inbounds %class.Arena, ptr %9, i32 0, i32 3
  store ptr %25, ptr %26, align 8
  %27 = getelementptr inbounds %class.Arena, ptr %9, i32 0, i32 4
  %28 = load ptr, ptr %27, align 8
  %29 = call noundef ptr @_ZNK5Chunk6bottomEv(ptr noundef nonnull align 8 dereferenceable(16) %28)
  %30 = getelementptr inbounds %class.Arena, ptr %9, i32 0, i32 5
  store ptr %29, ptr %30, align 8
  %31 = getelementptr inbounds %class.Arena, ptr %9, i32 0, i32 4
  %32 = load ptr, ptr %31, align 8
  %33 = call noundef ptr @_ZNK5Chunk3topEv(ptr noundef nonnull align 8 dereferenceable(16) %32)
  %34 = getelementptr inbounds %class.Arena, ptr %9, i32 0, i32 6
  store ptr %33, ptr %34, align 8
  %35 = load i8, ptr %6, align 1
  call void @_ZN10MemTracker16record_new_arenaE8MEMFLAGS(i8 noundef zeroext %35)
  %36 = load i64, ptr %8, align 8
  call void @_ZN5Arena17set_size_in_bytesEm(ptr noundef nonnull align 8 dereferenceable(48) %9, i64 noundef %36)
  ret void
}