; Function Attrs: mustprogress nounwind uwtable
define hidden void @_ZN5ArenaC2E8MEMFLAGSNS_3TagEm(ptr noundef nonnull align 8 dereferenceable(48) %0, i8 noundef zeroext %1, i8 noundef zeroext %2, i64 noundef %3) unnamed_addr #0 align 2 {
  store i8 %1, ptr %0, align 8
  %5 = getelementptr inbounds i8, ptr %0, i64 1
  store i8 %2, ptr %5, align 1
  %6 = getelementptr inbounds i8, ptr %0, i64 8
  %7 = getelementptr inbounds i8, ptr %0, i64 16
  %8 = getelementptr inbounds i8, ptr %0, i64 24
  %9 = getelementptr inbounds i8, ptr %0, i64 32
  %10 = getelementptr inbounds i8, ptr %0, i64 40
  %11 = add i64 %3, 7
  %12 = and i64 %11, -8
  tail call void @llvm.memset.p0.i64(ptr noundef nonnull align 8 dereferenceable(40) %6, i8 0, i64 40, i1 false)
  %13 = tail call noundef ptr @_ZN9ChunkPool14allocate_chunkEmN17AllocFailStrategy13AllocFailEnumE(i64 noundef %12, i32 noundef 0)
  store ptr %13, ptr %8, align 8
  store ptr %13, ptr %7, align 8
  %14 = getelementptr inbounds i8, ptr %13, i64 16
  store ptr %14, ptr %9, align 8
  %15 = getelementptr inbounds i8, ptr %13, i64 8
  %16 = load i64, ptr %15, align 8
  %17 = getelementptr inbounds i8, ptr %14, i64 %16
  store ptr %17, ptr %10, align 8
  %18 = load i32, ptr @_ZN10MemTracker15_tracking_levelE, align 4
  %19 = icmp sgt i32 %18, 1
  br i1 %19, label %20, label %_ZN10MemTracker16record_new_arenaE8MEMFLAGS.exit

20:                                               ; preds = %4
  %21 = zext i8 %1 to i64
  %22 = getelementptr inbounds [28 x %class.MallocMemory], ptr @_ZN19MallocMemorySummary9_snapshotE, i64 0, i64 %21, i32 1
  %23 = tail call noundef i64 asm sideeffect "lock xaddq $0,($2)", "=r,0,r,~{cc},~{memory},~{dirflag},~{fpsr},~{flags}"(i64 1, ptr nonnull %22) #11, !srcloc !9
  br label %_ZN10MemTracker16record_new_arenaE8MEMFLAGS.exit

_ZN10MemTracker16record_new_arenaE8MEMFLAGS.exit: ; preds = %4, %20
  %24 = load i64, ptr %6, align 8
  %.not.i = icmp eq i64 %24, %12
  br i1 %.not.i, label %_ZN5Arena17set_size_in_bytesEm.exit, label %25

25:                                               ; preds = %_ZN10MemTracker16record_new_arenaE8MEMFLAGS.exit
  %26 = sub i64 %12, %24
  store i64 %12, ptr %6, align 8
  %27 = load i32, ptr @_ZN10MemTracker15_tracking_levelE, align 4
  %28 = icmp slt i32 %27, 2
  br i1 %28, label %_ZN10MemTracker24record_arena_size_changeEl8MEMFLAGS.exit.i, label %29

29:                                               ; preds = %25
  %30 = load i8, ptr %0, align 8
  %31 = zext i8 %30 to i64
  %32 = getelementptr inbounds [28 x %class.MallocMemory], ptr @_ZN19MallocMemorySummary9_snapshotE, i64 0, i64 %31
  %33 = getelementptr inbounds i8, ptr %32, i64 32
  %34 = getelementptr inbounds i8, ptr %32, i64 40
  %35 = tail call noundef i64 asm sideeffect "lock xaddq $0,($2)", "=r,0,r,~{cc},~{memory},~{dirflag},~{fpsr},~{flags}"(i64 %26, ptr nonnull %34) #11, !srcloc !9
  %36 = add i64 %35, %26
  %37 = load volatile i64, ptr %33, align 8
  tail call void @_ZN13MemoryCounter11update_peakEmm(ptr noundef nonnull align 8 dereferenceable(32) %33, i64 noundef %36, i64 noundef %37) #11
  br label %_ZN10MemTracker24record_arena_size_changeEl8MEMFLAGS.exit.i

_ZN10MemTracker24record_arena_size_changeEl8MEMFLAGS.exit.i: ; preds = %29, %25
  %38 = load i8, ptr @_ZN26CompilationMemoryStatistic8_enabledE, align 1
  %39 = trunc i8 %38 to i1
  %40 = load i8, ptr %0, align 8
  %41 = icmp eq i8 %40, 7
  %or.cond.i = select i1 %39, i1 %41, i1 false
  br i1 %or.cond.i, label %42, label %_ZN5Arena17set_size_in_bytesEm.exit

42:                                               ; preds = %_ZN10MemTracker24record_arena_size_changeEl8MEMFLAGS.exit.i
  %43 = tail call align 8 ptr @llvm.threadlocal.address.p0(ptr align 8 @_ZN6Thread12_thr_currentE)
  %44 = load ptr, ptr %43, align 8
  %.not8.i = icmp eq ptr %44, null
  br i1 %.not8.i, label %_ZN5Arena17set_size_in_bytesEm.exit, label %45

45:                                               ; preds = %42
  %46 = load ptr, ptr %44, align 8
  %47 = getelementptr inbounds i8, ptr %46, i64 64
  %48 = load ptr, ptr %47, align 8
  %49 = tail call noundef zeroext i1 %48(ptr noundef nonnull align 8 dereferenceable(888) %44) #11
  br i1 %49, label %50, label %_ZN5Arena17set_size_in_bytesEm.exit

50:                                               ; preds = %45
  tail call void @_ZN26CompilationMemoryStatistic15on_arena_changeElPK5Arena(i64 noundef %26, ptr noundef nonnull %0) #11
  br label %_ZN5Arena17set_size_in_bytesEm.exit

_ZN5Arena17set_size_in_bytesEm.exit:              ; preds = %_ZN10MemTracker16record_new_arenaE8MEMFLAGS.exit, %_ZN10MemTracker24record_arena_size_changeEl8MEMFLAGS.exit.i, %42, %45, %50
  ret void
}